target datalayout = "e-m:e-p270:32:32-p271:32:32-p272:64:64-i64:64-i128:128-f80:128-n8:16:32:64-S128"
target triple = "x86_64-pc-linux-gnu"

%"struct.Yosys::RTLIL::IdString" = type { i32 }
%"struct.Yosys::RTLIL::SigSpec" = type { i32, i64, %"class.std::vector", %"class.std::vector.0" }
%"class.std::vector" = type { %"struct.std::_Vector_base" }
%"struct.std::_Vector_base" = type { %"struct.std::_Vector_base<Yosys::RTLIL::SigChunk, std::allocator<Yosys::RTLIL::SigChunk>>::_Vector_impl" }
%"struct.std::_Vector_base<Yosys::RTLIL::SigChunk, std::allocator<Yosys::RTLIL::SigChunk>>::_Vector_impl" = type { %"struct.std::_Vector_base<Yosys::RTLIL::SigChunk, std::allocator<Yosys::RTLIL::SigChunk>>::_Vector_impl_data" }
%"struct.std::_Vector_base<Yosys::RTLIL::SigChunk, std::allocator<Yosys::RTLIL::SigChunk>>::_Vector_impl_data" = type { ptr, ptr, ptr }
%"class.std::vector.0" = type { %"struct.std::_Vector_base.1" }
%"struct.std::_Vector_base.1" = type { %"struct.std::_Vector_base<Yosys::RTLIL::SigBit, std::allocator<Yosys::RTLIL::SigBit>>::_Vector_impl" }
%"struct.std::_Vector_base<Yosys::RTLIL::SigBit, std::allocator<Yosys::RTLIL::SigBit>>::_Vector_impl" = type { %"struct.std::_Vector_base<Yosys::RTLIL::SigBit, std::allocator<Yosys::RTLIL::SigBit>>::_Vector_impl_data" }
%"struct.std::_Vector_base<Yosys::RTLIL::SigBit, std::allocator<Yosys::RTLIL::SigBit>>::_Vector_impl_data" = type { ptr, ptr, ptr }
%"struct.std::pair" = type { %"struct.Yosys::RTLIL::SigSpec", %"struct.Yosys::RTLIL::SigSpec" }

@_ZN5Yosys5RTLIL2ID1AE = external global %"struct.Yosys::RTLIL::IdString", align 4
@_ZN5Yosys5RTLIL2ID1YE = external global %"struct.Yosys::RTLIL::IdString", align 4
@_ZN5Yosys5RTLIL2ID1BE = external global %"struct.Yosys::RTLIL::IdString", align 4

; Function Attrs: mustprogress uwtable
define linkonce_odr void @_ZNSt4pairIN5Yosys5RTLIL7SigSpecES2_EC2IRS2_S5_TnNSt9enable_ifIXaaclsr5_PCCPE22_MoveConstructiblePairIT_T0_EEclsr5_PCCPE30_ImplicitlyMoveConvertiblePairIS7_S8_EEEbE4typeELb1EEEOS7_OS8_(ptr noundef nonnull align 8 dereferenceable(128) %0, ptr noundef nonnull align 8 dereferenceable(64) %1, ptr noundef nonnull align 8 dereferenceable(64) %2) unnamed_addr #4 comdat align 2 personality ptr @__gxx_personality_v0 {
  %4 = alloca ptr, align 8
  %5 = alloca ptr, align 8
  %6 = alloca ptr, align 8
  %7 = alloca ptr, align 8
  %8 = alloca i32, align 4
  store ptr %0, ptr %4, align 8
  store ptr %1, ptr %5, align 8
  store ptr %2, ptr %6, align 8
  %9 = load ptr, ptr %4, align 8
  %10 = getelementptr inbounds %"struct.std::pair", ptr %9, i32 0, i32 0
  %11 = load ptr, ptr %5, align 8
  call void @_ZN5Yosys5RTLIL7SigSpecC2ERKS1_(ptr noundef nonnull align 8 dereferenceable(64) %10, ptr noundef nonnull align 8 dereferenceable(64) %11)
  %12 = getelementptr inbounds %"struct.std::pair", ptr %9, i32 0, i32 1
  %13 = load ptr, ptr %6, align 8
  invoke void @_ZN5Yosys5RTLIL7SigSpecC2ERKS1_(ptr noundef nonnull align 8 dereferenceable(64) %12, ptr noundef nonnull align 8 dereferenceable(64) %13)
          to label %14 unwind label %15

14:                                               ; preds = %3
  ret void

15:                                               ; preds = %3
  %16 = landingpad { ptr, i32 }
          cleanup
  %17 = extractvalue { ptr, i32 } %16, 0
  store ptr %17, ptr %7, align 8
  %18 = extractvalue { ptr, i32 } %16, 1
  store i32 %18, ptr %8, align 4
  call void @_ZN5Yosys5RTLIL7SigSpecD2Ev(ptr noundef nonnull align 8 dereferenceable(64) %10) #3
  br label %19

19:                                               ; preds = %15
  %20 = load ptr, ptr %7, align 8
  %21 = load i32, ptr %8, align 4
  %22 = insertvalue { ptr, i32 } poison, ptr %20, 0
  %23 = insertvalue { ptr, i32 } %22, i32 %21, 1
  resume { ptr, i32 } %23
}

; Function Attrs: mustprogress uwtable
define void @_ZN5Yosys16simplemap_concatEPNS_5RTLIL6ModuleEPNS0_4CellE(ptr noundef %0, ptr noundef %1) #4 personality ptr @__gxx_personality_v0 {
  %3 = alloca ptr, align 8
  %4 = alloca ptr, align 8
  %5 = alloca %"struct.Yosys::RTLIL::SigSpec", align 8
  %6 = alloca ptr, align 8
  %7 = alloca i32, align 4
  %8 = alloca %"struct.Yosys::RTLIL::SigSpec", align 8
  %9 = alloca %"struct.std::pair", align 8
  store ptr %0, ptr %3, align 8
  store ptr %1, ptr %4, align 8
  %10 = load ptr, ptr %4, align 8
  %11 = call noundef nonnull align 8 dereferenceable(64) ptr @_ZNK5Yosys5RTLIL4Cell7getPortERKNS0_8IdStringE(ptr noundef nonnull align 8 dereferenceable(192) %10, ptr noundef nonnull align 4 dereferenceable(4) @_ZN5Yosys5RTLIL2ID1AE)
  call void @_ZN5Yosys5RTLIL7SigSpecC2ERKS1_(ptr noundef nonnull align 8 dereferenceable(64) %5, ptr noundef nonnull align 8 dereferenceable(64) %11)
  %12 = load ptr, ptr %4, align 8
  %13 = invoke noundef nonnull align 8 dereferenceable(64) ptr @_ZNK5Yosys5RTLIL4Cell7getPortERKNS0_8IdStringE(ptr noundef nonnull align 8 dereferenceable(192) %12, ptr noundef nonnull align 4 dereferenceable(4) @_ZN5Yosys5RTLIL2ID1BE)
          to label %14 unwind label %23

14:                                               ; preds = %2
  invoke void @_ZN5Yosys5RTLIL7SigSpec6appendERKS1_(ptr noundef nonnull align 8 dereferenceable(64) %5, ptr noundef nonnull align 8 dereferenceable(64) %13)
          to label %15 unwind label %23

15:                                               ; preds = %14
  %16 = load ptr, ptr %4, align 8
  %17 = invoke noundef nonnull align 8 dereferenceable(64) ptr @_ZNK5Yosys5RTLIL4Cell7getPortERKNS0_8IdStringE(ptr noundef nonnull align 8 dereferenceable(192) %16, ptr noundef nonnull align 4 dereferenceable(4) @_ZN5Yosys5RTLIL2ID1YE)
          to label %18 unwind label %23

18:                                               ; preds = %15
  invoke void @_ZN5Yosys5RTLIL7SigSpecC2ERKS1_(ptr noundef nonnull align 8 dereferenceable(64) %8, ptr noundef nonnull align 8 dereferenceable(64) %17)
          to label %19 unwind label %23

19:                                               ; preds = %18
  %20 = load ptr, ptr %3, align 8
  invoke void @_ZNSt4pairIN5Yosys5RTLIL7SigSpecES2_EC2IRS2_S5_TnNSt9enable_ifIXaaclsr5_PCCPE22_MoveConstructiblePairIT_T0_EEclsr5_PCCPE30_ImplicitlyMoveConvertiblePairIS7_S8_EEEbE4typeELb1EEEOS7_OS8_(ptr noundef nonnull align 8 dereferenceable(128) %9, ptr noundef nonnull align 8 dereferenceable(64) %8, ptr noundef nonnull align 8 dereferenceable(64) %5)
          to label %21 unwind label %27

21:                                               ; preds = %19
  invoke void @_ZN5Yosys5RTLIL6Module7connectERKSt4pairINS0_7SigSpecES3_E(ptr noundef nonnull align 8 dereferenceable(560) %20, ptr noundef nonnull align 8 dereferenceable(128) %9)
          to label %22 unwind label %31

22:                                               ; preds = %21
  call void @_ZNSt4pairIN5Yosys5RTLIL7SigSpecES2_ED2Ev(ptr noundef nonnull align 8 dereferenceable(128) %9) #3
  call void @_ZN5Yosys5RTLIL7SigSpecD2Ev(ptr noundef nonnull align 8 dereferenceable(64) %8) #3
  call void @_ZN5Yosys5RTLIL7SigSpecD2Ev(ptr noundef nonnull align 8 dereferenceable(64) %5) #3
  ret void

23:                                               ; preds = %18, %15, %14, %2
  %24 = landingpad { ptr, i32 }
          cleanup
  %25 = extractvalue { ptr, i32 } %24, 0
  store ptr %25, ptr %6, align 8
  %26 = extractvalue { ptr, i32 } %24, 1
  store i32 %26, ptr %7, align 4
  br label %36

27:                                               ; preds = %19
  %28 = landingpad { ptr, i32 }
          cleanup
  %29 = extractvalue { ptr, i32 } %28, 0
  store ptr %29, ptr %6, align 8
  %30 = extractvalue { ptr, i32 } %28, 1
  store i32 %30, ptr %7, align 4
  br label %35

31:                                               ; preds = %21
  %32 = landingpad { ptr, i32 }
          cleanup
  %33 = extractvalue { ptr, i32 } %32, 0
  store ptr %33, ptr %6, align 8
  %34 = extractvalue { ptr, i32 } %32, 1
  store i32 %34, ptr %7, align 4
  call void @_ZNSt4pairIN5Yosys5RTLIL7SigSpecES2_ED2Ev(ptr noundef nonnull align 8 dereferenceable(128) %9) #3
  br label %35

35:                                               ; preds = %31, %27
  call void @_ZN5Yosys5RTLIL7SigSpecD2Ev(ptr noundef nonnull align 8 dereferenceable(64) %8) #3
  br label %36

36:                                               ; preds = %35, %23
  call void @_ZN5Yosys5RTLIL7SigSpecD2Ev(ptr noundef nonnull align 8 dereferenceable(64) %5) #3
  br label %37

37:                                               ; preds = %36
  %38 = load ptr, ptr %6, align 8
  %39 = load i32, ptr %7, align 4
  %40 = insertvalue { ptr, i32 } poison, ptr %38, 0
  %41 = insertvalue { ptr, i32 } %40, i32 %39, 1
  resume { ptr, i32 } %41
}