; Function Attrs: mustprogress uwtable
define void @_ZN5Yosys16simplemap_concatEPNS_5RTLIL6ModuleEPNS0_4CellE(ptr noundef %0, ptr noundef nonnull %1) #3 personality ptr @__gxx_personality_v0 {
  %3 = alloca %"struct.Yosys::RTLIL::SigSpec", align 8
  %4 = alloca %"struct.Yosys::RTLIL::SigSpec", align 8
  %5 = alloca %"struct.std::pair", align 8
  %6 = tail call noundef nonnull align 8 dereferenceable(64) ptr @_ZNK5Yosys5RTLIL4Cell7getPortERKNS0_8IdStringE(ptr noundef nonnull align 8 dereferenceable(192) %1, ptr noundef nonnull align 4 dereferenceable(4) @_ZN5Yosys5RTLIL2ID1AE)
  call void @_ZN5Yosys5RTLIL7SigSpecC2ERKS1_(ptr noundef nonnull align 8 dereferenceable(64) %3, ptr noundef nonnull align 8 dereferenceable(64) %6)
  %7 = invoke noundef nonnull align 8 dereferenceable(64) ptr @_ZNK5Yosys5RTLIL4Cell7getPortERKNS0_8IdStringE(ptr noundef nonnull align 8 dereferenceable(192) %1, ptr noundef nonnull align 4 dereferenceable(4) @_ZN5Yosys5RTLIL2ID1BE)
          to label %8 unwind label %43

8:                                                ; preds = %2
  invoke void @_ZN5Yosys5RTLIL7SigSpec6appendERKS1_(ptr noundef nonnull align 8 dereferenceable(64) %3, ptr noundef nonnull align 8 dereferenceable(64) %7)
          to label %9 unwind label %43

9:                                                ; preds = %8
  %10 = invoke noundef nonnull align 8 dereferenceable(64) ptr @_ZNK5Yosys5RTLIL4Cell7getPortERKNS0_8IdStringE(ptr noundef nonnull align 8 dereferenceable(192) %1, ptr noundef nonnull align 4 dereferenceable(4) @_ZN5Yosys5RTLIL2ID1YE)
          to label %11 unwind label %43

11:                                               ; preds = %9
  invoke void @_ZN5Yosys5RTLIL7SigSpecC2ERKS1_(ptr noundef nonnull align 8 dereferenceable(64) %4, ptr noundef nonnull align 8 dereferenceable(64) %10)
          to label %12 unwind label %43

12:                                               ; preds = %11
  invoke void @_ZN5Yosys5RTLIL7SigSpecC2ERKS1_(ptr noundef nonnull align 8 dereferenceable(64) %5, ptr noundef nonnull align 8 dereferenceable(64) %4)
          to label %.noexc unwind label %45

.noexc:                                           ; preds = %12
  %13 = getelementptr inbounds i8, ptr %5, i64 64
  invoke void @_ZN5Yosys5RTLIL7SigSpecC2ERKS1_(ptr noundef nonnull align 8 dereferenceable(64) %13, ptr noundef nonnull align 8 dereferenceable(64) %3)
          to label %_ZNSt4pairIN5Yosys5RTLIL7SigSpecES2_EC2IRS2_S5_TnNSt9enable_ifIXaaclsr5_PCCPE22_MoveConstructiblePairIT_T0_EEclsr5_PCCPE30_ImplicitlyMoveConvertiblePairIS7_S8_EEEbE4typeELb1EEEOS7_OS8_.exit unwind label %14

14:                                               ; preds = %.noexc
  %15 = landingpad { ptr, i32 }
          cleanup
  call void @_ZN5Yosys5RTLIL7SigSpecD2Ev(ptr noundef nonnull align 8 dereferenceable(64) %5) #17
  br label %.body

_ZNSt4pairIN5Yosys5RTLIL7SigSpecES2_EC2IRS2_S5_TnNSt9enable_ifIXaaclsr5_PCCPE22_MoveConstructiblePairIT_T0_EEclsr5_PCCPE30_ImplicitlyMoveConvertiblePairIS7_S8_EEEbE4typeELb1EEEOS7_OS8_.exit: ; preds = %.noexc
  invoke void @_ZN5Yosys5RTLIL6Module7connectERKSt4pairINS0_7SigSpecES3_E(ptr noundef nonnull align 8 dereferenceable(560) %0, ptr noundef nonnull align 8 dereferenceable(128) %5)
          to label %16 unwind label %47

16:                                               ; preds = %_ZNSt4pairIN5Yosys5RTLIL7SigSpecES2_EC2IRS2_S5_TnNSt9enable_ifIXaaclsr5_PCCPE22_MoveConstructiblePairIT_T0_EEclsr5_PCCPE30_ImplicitlyMoveConvertiblePairIS7_S8_EEEbE4typeELb1EEEOS7_OS8_.exit
  call void @_ZNSt4pairIN5Yosys5RTLIL7SigSpecES2_ED2Ev(ptr noundef nonnull align 8 dereferenceable(128) %5) #17
  %17 = getelementptr inbounds i8, ptr %4, i64 40
  %18 = load ptr, ptr %17, align 8
  %.not.i.i.i.i = icmp eq ptr %18, null
  br i1 %.not.i.i.i.i, label %_ZNSt6vectorIN5Yosys5RTLIL6SigBitESaIS2_EED2Ev.exit.i, label %19

19:                                               ; preds = %16
  call void @_ZdlPv(ptr noundef nonnull %18) #20
  br label %_ZNSt6vectorIN5Yosys5RTLIL6SigBitESaIS2_EED2Ev.exit.i

_ZNSt6vectorIN5Yosys5RTLIL6SigBitESaIS2_EED2Ev.exit.i: ; preds = %19, %16
  %20 = getelementptr inbounds i8, ptr %4, i64 16
  %21 = load ptr, ptr %20, align 8
  %22 = getelementptr inbounds i8, ptr %4, i64 24
  %23 = load ptr, ptr %22, align 8
  %.not4.i.i.i.i.i = icmp eq ptr %21, %23
  br i1 %.not4.i.i.i.i.i, label %_ZSt8_DestroyIPN5Yosys5RTLIL8SigChunkES2_EvT_S4_RSaIT0_E.exit.i.i, label %.lr.ph.i.i.i.i.i

.lr.ph.i.i.i.i.i:                                 ; preds = %_ZNSt6vectorIN5Yosys5RTLIL6SigBitESaIS2_EED2Ev.exit.i, %_ZSt8_DestroyIN5Yosys5RTLIL8SigChunkEEvPT_.exit.i.i.i.i.i
  %.05.i.i.i.i.i = phi ptr [ %27, %_ZSt8_DestroyIN5Yosys5RTLIL8SigChunkEEvPT_.exit.i.i.i.i.i ], [ %21, %_ZNSt6vectorIN5Yosys5RTLIL6SigBitESaIS2_EED2Ev.exit.i ]
  %24 = getelementptr inbounds i8, ptr %.05.i.i.i.i.i, i64 8
  %25 = load ptr, ptr %24, align 8
  %.not.i.i.i.i.i.i.i.i.i.i = icmp eq ptr %25, null
  br i1 %.not.i.i.i.i.i.i.i.i.i.i, label %_ZSt8_DestroyIN5Yosys5RTLIL8SigChunkEEvPT_.exit.i.i.i.i.i, label %26

26:                                               ; preds = %.lr.ph.i.i.i.i.i
  call void @_ZdlPv(ptr noundef nonnull %25) #20
  br label %_ZSt8_DestroyIN5Yosys5RTLIL8SigChunkEEvPT_.exit.i.i.i.i.i

_ZSt8_DestroyIN5Yosys5RTLIL8SigChunkEEvPT_.exit.i.i.i.i.i: ; preds = %26, %.lr.ph.i.i.i.i.i
  %27 = getelementptr inbounds i8, ptr %.05.i.i.i.i.i, i64 40
  %.not.i.i.i.i.i = icmp eq ptr %27, %23
  br i1 %.not.i.i.i.i.i, label %_ZSt8_DestroyIPN5Yosys5RTLIL8SigChunkES2_EvT_S4_RSaIT0_E.exitthread-pre-split.i.i, label %.lr.ph.i.i.i.i.i, !llvm.loop !10

_ZSt8_DestroyIPN5Yosys5RTLIL8SigChunkES2_EvT_S4_RSaIT0_E.exitthread-pre-split.i.i: ; preds = %_ZSt8_DestroyIN5Yosys5RTLIL8SigChunkEEvPT_.exit.i.i.i.i.i
  %.pr.i.i = load ptr, ptr %20, align 8
  br label %_ZSt8_DestroyIPN5Yosys5RTLIL8SigChunkES2_EvT_S4_RSaIT0_E.exit.i.i

_ZSt8_DestroyIPN5Yosys5RTLIL8SigChunkES2_EvT_S4_RSaIT0_E.exit.i.i: ; preds = %_ZSt8_DestroyIPN5Yosys5RTLIL8SigChunkES2_EvT_S4_RSaIT0_E.exitthread-pre-split.i.i, %_ZNSt6vectorIN5Yosys5RTLIL6SigBitESaIS2_EED2Ev.exit.i
  %28 = phi ptr [ %.pr.i.i, %_ZSt8_DestroyIPN5Yosys5RTLIL8SigChunkES2_EvT_S4_RSaIT0_E.exitthread-pre-split.i.i ], [ %21, %_ZNSt6vectorIN5Yosys5RTLIL6SigBitESaIS2_EED2Ev.exit.i ]
  %.not.i.i.i1.i = icmp eq ptr %28, null
  br i1 %.not.i.i.i1.i, label %_ZN5Yosys5RTLIL7SigSpecD2Ev.exit, label %29

29:                                               ; preds = %_ZSt8_DestroyIPN5Yosys5RTLIL8SigChunkES2_EvT_S4_RSaIT0_E.exit.i.i
  call void @_ZdlPv(ptr noundef nonnull %28) #20
  br label %_ZN5Yosys5RTLIL7SigSpecD2Ev.exit

_ZN5Yosys5RTLIL7SigSpecD2Ev.exit:                 ; preds = %_ZSt8_DestroyIPN5Yosys5RTLIL8SigChunkES2_EvT_S4_RSaIT0_E.exit.i.i, %29
  %30 = getelementptr inbounds i8, ptr %3, i64 40
  %31 = load ptr, ptr %30, align 8
  %.not.i.i.i.i9 = icmp eq ptr %31, null
  br i1 %.not.i.i.i.i9, label %_ZNSt6vectorIN5Yosys5RTLIL6SigBitESaIS2_EED2Ev.exit.i10, label %32

32:                                               ; preds = %_ZN5Yosys5RTLIL7SigSpecD2Ev.exit
  call void @_ZdlPv(ptr noundef nonnull %31) #20
  br label %_ZNSt6vectorIN5Yosys5RTLIL6SigBitESaIS2_EED2Ev.exit.i10

_ZNSt6vectorIN5Yosys5RTLIL6SigBitESaIS2_EED2Ev.exit.i10: ; preds = %32, %_ZN5Yosys5RTLIL7SigSpecD2Ev.exit
  %33 = getelementptr inbounds i8, ptr %3, i64 16
  %34 = load ptr, ptr %33, align 8
  %35 = getelementptr inbounds i8, ptr %3, i64 24
  %36 = load ptr, ptr %35, align 8
  %.not4.i.i.i.i.i11 = icmp eq ptr %34, %36
  br i1 %.not4.i.i.i.i.i11, label %_ZSt8_DestroyIPN5Yosys5RTLIL8SigChunkES2_EvT_S4_RSaIT0_E.exit.i.i19, label %.lr.ph.i.i.i.i.i12

.lr.ph.i.i.i.i.i12:                               ; preds = %_ZNSt6vectorIN5Yosys5RTLIL6SigBitESaIS2_EED2Ev.exit.i10, %_ZSt8_DestroyIN5Yosys5RTLIL8SigChunkEEvPT_.exit.i.i.i.i.i15
  %.05.i.i.i.i.i13 = phi ptr [ %40, %_ZSt8_DestroyIN5Yosys5RTLIL8SigChunkEEvPT_.exit.i.i.i.i.i15 ], [ %34, %_ZNSt6vectorIN5Yosys5RTLIL6SigBitESaIS2_EED2Ev.exit.i10 ]
  %37 = getelementptr inbounds i8, ptr %.05.i.i.i.i.i13, i64 8
  %38 = load ptr, ptr %37, align 8
  %.not.i.i.i.i.i.i.i.i.i.i14 = icmp eq ptr %38, null
  br i1 %.not.i.i.i.i.i.i.i.i.i.i14, label %_ZSt8_DestroyIN5Yosys5RTLIL8SigChunkEEvPT_.exit.i.i.i.i.i15, label %39

39:                                               ; preds = %.lr.ph.i.i.i.i.i12
  call void @_ZdlPv(ptr noundef nonnull %38) #20
  br label %_ZSt8_DestroyIN5Yosys5RTLIL8SigChunkEEvPT_.exit.i.i.i.i.i15

_ZSt8_DestroyIN5Yosys5RTLIL8SigChunkEEvPT_.exit.i.i.i.i.i15: ; preds = %39, %.lr.ph.i.i.i.i.i12
  %40 = getelementptr inbounds i8, ptr %.05.i.i.i.i.i13, i64 40
  %.not.i.i.i.i.i16 = icmp eq ptr %40, %36
  br i1 %.not.i.i.i.i.i16, label %_ZSt8_DestroyIPN5Yosys5RTLIL8SigChunkES2_EvT_S4_RSaIT0_E.exitthread-pre-split.i.i17, label %.lr.ph.i.i.i.i.i12, !llvm.loop !10

_ZSt8_DestroyIPN5Yosys5RTLIL8SigChunkES2_EvT_S4_RSaIT0_E.exitthread-pre-split.i.i17: ; preds = %_ZSt8_DestroyIN5Yosys5RTLIL8SigChunkEEvPT_.exit.i.i.i.i.i15
  %.pr.i.i18 = load ptr, ptr %33, align 8
  br label %_ZSt8_DestroyIPN5Yosys5RTLIL8SigChunkES2_EvT_S4_RSaIT0_E.exit.i.i19

_ZSt8_DestroyIPN5Yosys5RTLIL8SigChunkES2_EvT_S4_RSaIT0_E.exit.i.i19: ; preds = %_ZSt8_DestroyIPN5Yosys5RTLIL8SigChunkES2_EvT_S4_RSaIT0_E.exitthread-pre-split.i.i17, %_ZNSt6vectorIN5Yosys5RTLIL6SigBitESaIS2_EED2Ev.exit.i10
  %41 = phi ptr [ %.pr.i.i18, %_ZSt8_DestroyIPN5Yosys5RTLIL8SigChunkES2_EvT_S4_RSaIT0_E.exitthread-pre-split.i.i17 ], [ %34, %_ZNSt6vectorIN5Yosys5RTLIL6SigBitESaIS2_EED2Ev.exit.i10 ]
  %.not.i.i.i1.i20 = icmp eq ptr %41, null
  br i1 %.not.i.i.i1.i20, label %_ZN5Yosys5RTLIL7SigSpecD2Ev.exit21, label %42

42:                                               ; preds = %_ZSt8_DestroyIPN5Yosys5RTLIL8SigChunkES2_EvT_S4_RSaIT0_E.exit.i.i19
  call void @_ZdlPv(ptr noundef nonnull %41) #20
  br label %_ZN5Yosys5RTLIL7SigSpecD2Ev.exit21

_ZN5Yosys5RTLIL7SigSpecD2Ev.exit21:               ; preds = %_ZSt8_DestroyIPN5Yosys5RTLIL8SigChunkES2_EvT_S4_RSaIT0_E.exit.i.i19, %42
  ret void

43:                                               ; preds = %11, %9, %8, %2
  %44 = landingpad { ptr, i32 }
          cleanup
  br label %49

45:                                               ; preds = %12
  %46 = landingpad { ptr, i32 }
          cleanup
  br label %.body

47:                                               ; preds = %_ZNSt4pairIN5Yosys5RTLIL7SigSpecES2_EC2IRS2_S5_TnNSt9enable_ifIXaaclsr5_PCCPE22_MoveConstructiblePairIT_T0_EEclsr5_PCCPE30_ImplicitlyMoveConvertiblePairIS7_S8_EEEbE4typeELb1EEEOS7_OS8_.exit
  %48 = landingpad { ptr, i32 }
          cleanup
  call void @_ZNSt4pairIN5Yosys5RTLIL7SigSpecES2_ED2Ev(ptr noundef nonnull align 8 dereferenceable(128) %5) #17
  br label %.body

.body:                                            ; preds = %45, %14, %47
  %.pn = phi { ptr, i32 } [ %48, %47 ], [ %46, %45 ], [ %15, %14 ]
  call void @_ZN5Yosys5RTLIL7SigSpecD2Ev(ptr noundef nonnull align 8 dereferenceable(64) %4) #17
  br label %49

49:                                               ; preds = %.body, %43
  %.pn.pn = phi { ptr, i32 } [ %.pn, %.body ], [ %44, %43 ]
  call void @_ZN5Yosys5RTLIL7SigSpecD2Ev(ptr noundef nonnull align 8 dereferenceable(64) %3) #17
  resume { ptr, i32 } %.pn.pn
}